target datalayout = "e-m:e-p270:32:32-p271:32:32-p272:64:64-i64:64-i128:128-f80:128-n8:16:32:64-S128"
target triple = "x86_64-pc-linux-gnu"

%struct._lv_vector_draw_dsc_t = type { %struct._lv_vector_fill_dsc_t, %struct._lv_vector_stroke_dsc_t, %struct._lv_matrix_t, i32, %struct.lv_area_t }
%struct._lv_vector_fill_dsc_t = type { i32, %struct.lv_color32_t, i8, i32, %struct._lv_draw_image_dsc_t, %struct._lv_vector_gradient_t, %struct._lv_matrix_t }
%struct.lv_color32_t = type { i8, i8, i8, i8 }
%struct._lv_draw_image_dsc_t = type { %struct.lv_draw_dsc_base_t, ptr, %struct.lv_image_header_t, i32, i32, i32, i32, i32, %struct.lv_point_t, %struct.lv_color_t, i8, i8, i8, ptr, %struct.lv_area_t, i32, ptr }
%struct.lv_draw_dsc_base_t = type { ptr, i32, i32, i32, ptr, i64, ptr }
%struct.lv_image_header_t = type <{ i64, i32 }>
%struct.lv_point_t = type { i32, i32 }
%struct.lv_color_t = type { i8, i8, i8 }
%struct._lv_vector_gradient_t = type { i32, [2 x %struct.lv_gradient_stop_t], i16, float, float, float, float, float, float, float, i32 }
%struct.lv_gradient_stop_t = type { %struct.lv_color_t, i8, i8 }
%struct._lv_vector_stroke_dsc_t = type { i32, %struct.lv_color32_t, i8, float, %struct._lv_array_t, i32, i32, i16, %struct._lv_vector_gradient_t, %struct._lv_matrix_t }
%struct._lv_array_t = type { ptr, i32, i32, i32, i8 }
%struct._lv_matrix_t = type { [3 x [3 x float]] }
%struct.lv_area_t = type { i32, i32, i32, i32 }
%struct._lv_svg_render_obj = type { ptr, i32, ptr, %struct._lv_vector_draw_dsc_t, %struct._lv_matrix_t, ptr, ptr, ptr, ptr, ptr, ptr, ptr, ptr, ptr }
%struct.lv_svg_node_t = type { %struct._lv_tree_node_t, ptr, i8, %struct._lv_array_t, ptr }
%struct._lv_tree_node_t = type { ptr, ptr, i32, i32, ptr }
%struct.lv_svg_render_gradient_t = type { %struct._lv_svg_render_obj, %struct._lv_vector_gradient_t, i8 }
%struct.lv_svg_attr_t = type { i8, i8, i8, %union.lv_svg_attr_value_t }
%union.lv_svg_attr_value_t = type { ptr }

; Function Attrs: nounwind uwtable
define internal void @_init_obj(ptr noundef %0, ptr noundef %1) #0 {
  %3 = alloca ptr, align 8
  %4 = alloca ptr, align 8
  store ptr %0, ptr %3, align 8, !tbaa !3
  store ptr %1, ptr %4, align 8, !tbaa !3
  %5 = load ptr, ptr %3, align 8, !tbaa !3
  %6 = getelementptr inbounds nuw %struct._lv_svg_render_obj, ptr %5, i32 0, i32 4
  call void @lv_matrix_identity(ptr noundef %6)
  ret void
}

; Function Attrs: nounwind uwtable
define internal void @_init_gradient(ptr noundef %0, ptr noundef %1) #0 {
  %3 = alloca ptr, align 8
  %4 = alloca ptr, align 8
  %5 = alloca ptr, align 8
  %6 = alloca i32, align 4
  %7 = alloca i32, align 4
  %8 = alloca i32, align 4
  %9 = alloca i32, align 4
  %10 = alloca ptr, align 8
  %11 = alloca i32, align 4
  %12 = alloca i8, align 1
  %13 = alloca %struct.lv_color_t, align 1
  %14 = alloca i8, align 1
  %15 = alloca i8, align 1
  %16 = alloca i32, align 4
  %17 = alloca ptr, align 8
  %18 = alloca %struct.lv_color_t, align 1
  store ptr %0, ptr %3, align 8, !tbaa !3
  store ptr %1, ptr %4, align 8, !tbaa !3
  %19 = load ptr, ptr %3, align 8, !tbaa !3
  %20 = load ptr, ptr %4, align 8, !tbaa !3
  call void @_init_obj(ptr noundef %19, ptr noundef %20)
  call void @llvm.lifetime.start.p0(i64 8, ptr %5) #8
  %21 = load ptr, ptr %3, align 8, !tbaa !3
  store ptr %21, ptr %5, align 8, !tbaa !3
  %22 = load ptr, ptr %5, align 8, !tbaa !3
  %23 = getelementptr inbounds nuw %struct.lv_svg_render_gradient_t, ptr %22, i32 0, i32 2
  store i8 0, ptr %23, align 8, !tbaa !239
  %24 = load ptr, ptr %5, align 8, !tbaa !3
  %25 = getelementptr inbounds nuw %struct.lv_svg_render_gradient_t, ptr %24, i32 0, i32 1
  %26 = getelementptr inbounds nuw %struct._lv_vector_gradient_t, ptr %25, i32 0, i32 7
  store float 5.000000e-01, ptr %26, align 8, !tbaa !240
  %27 = load ptr, ptr %5, align 8, !tbaa !3
  %28 = getelementptr inbounds nuw %struct.lv_svg_render_gradient_t, ptr %27, i32 0, i32 1
  %29 = getelementptr inbounds nuw %struct._lv_vector_gradient_t, ptr %28, i32 0, i32 8
  store float 5.000000e-01, ptr %29, align 4, !tbaa !241
  %30 = load ptr, ptr %5, align 8, !tbaa !3
  %31 = getelementptr inbounds nuw %struct.lv_svg_render_gradient_t, ptr %30, i32 0, i32 1
  %32 = getelementptr inbounds nuw %struct._lv_vector_gradient_t, ptr %31, i32 0, i32 9
  store float 5.000000e-01, ptr %32, align 8, !tbaa !242
  %33 = load ptr, ptr %5, align 8, !tbaa !3
  %34 = getelementptr inbounds nuw %struct.lv_svg_render_gradient_t, ptr %33, i32 0, i32 1
  %35 = getelementptr inbounds nuw %struct._lv_vector_gradient_t, ptr %34, i32 0, i32 3
  store float 0.000000e+00, ptr %35, align 8, !tbaa !243
  %36 = load ptr, ptr %5, align 8, !tbaa !3
  %37 = getelementptr inbounds nuw %struct.lv_svg_render_gradient_t, ptr %36, i32 0, i32 1
  %38 = getelementptr inbounds nuw %struct._lv_vector_gradient_t, ptr %37, i32 0, i32 4
  store float 0.000000e+00, ptr %38, align 4, !tbaa !244
  %39 = load ptr, ptr %5, align 8, !tbaa !3
  %40 = getelementptr inbounds nuw %struct.lv_svg_render_gradient_t, ptr %39, i32 0, i32 1
  %41 = getelementptr inbounds nuw %struct._lv_vector_gradient_t, ptr %40, i32 0, i32 5
  store float 1.000000e+00, ptr %41, align 8, !tbaa !245
  %42 = load ptr, ptr %5, align 8, !tbaa !3
  %43 = getelementptr inbounds nuw %struct.lv_svg_render_gradient_t, ptr %42, i32 0, i32 1
  %44 = getelementptr inbounds nuw %struct._lv_vector_gradient_t, ptr %43, i32 0, i32 6
  store float 0.000000e+00, ptr %44, align 4, !tbaa !246
  %45 = load ptr, ptr %5, align 8, !tbaa !3
  %46 = getelementptr inbounds nuw %struct.lv_svg_render_gradient_t, ptr %45, i32 0, i32 1
  %47 = getelementptr inbounds nuw %struct._lv_vector_gradient_t, ptr %46, i32 0, i32 10
  store i32 0, ptr %47, align 4, !tbaa !247
  call void @llvm.lifetime.start.p0(i64 4, ptr %6) #8
  %48 = load ptr, ptr %4, align 8, !tbaa !3
  %49 = getelementptr inbounds nuw %struct._lv_tree_node_t, ptr %48, i32 0, i32 2
  %50 = load i32, ptr %49, align 8, !tbaa !61
  store i32 %50, ptr %6, align 4, !tbaa !8
  call void @llvm.lifetime.start.p0(i64 4, ptr %7) #8
  store i32 0, ptr %7, align 4, !tbaa !8
  call void @llvm.lifetime.start.p0(i64 4, ptr %8) #8
  store i32 0, ptr %8, align 4, !tbaa !8
  br label %51

51:                                               ; preds = %140, %2
  %52 = load i32, ptr %8, align 4, !tbaa !8
  %53 = load i32, ptr %6, align 4, !tbaa !8
  %54 = icmp ult i32 %52, %53
  br i1 %54, label %56, label %55

55:                                               ; preds = %51
  store i32 2, ptr %9, align 4
  br label %143

56:                                               ; preds = %51
  call void @llvm.lifetime.start.p0(i64 8, ptr %10) #8
  %57 = load ptr, ptr %4, align 8, !tbaa !3
  %58 = getelementptr inbounds nuw %struct._lv_tree_node_t, ptr %57, i32 0, i32 1
  %59 = load ptr, ptr %58, align 8, !tbaa !62
  %60 = load i32, ptr %8, align 4, !tbaa !8
  %61 = zext i32 %60 to i64
  %62 = getelementptr inbounds nuw ptr, ptr %59, i64 %61
  %63 = load ptr, ptr %62, align 8, !tbaa !3
  store ptr %63, ptr %10, align 8, !tbaa !3
  call void @llvm.lifetime.start.p0(i64 4, ptr %11) #8
  %64 = load ptr, ptr %10, align 8, !tbaa !3
  %65 = getelementptr inbounds nuw %struct.lv_svg_node_t, ptr %64, i32 0, i32 3
  %66 = call i32 @lv_array_size(ptr noundef %65)
  store i32 %66, ptr %11, align 4, !tbaa !8
  call void @llvm.lifetime.start.p0(i64 1, ptr %12) #8
  store i8 0, ptr %12, align 1, !tbaa !235
  call void @llvm.lifetime.start.p0(i64 3, ptr %13) #8
  %67 = call i24 @lv_color_black()
  store i24 %67, ptr %13, align 1
  call void @llvm.lifetime.start.p0(i64 1, ptr %14) #8
  store i8 -1, ptr %14, align 1, !tbaa !79
  call void @llvm.lifetime.start.p0(i64 1, ptr %15) #8
  store i8 0, ptr %15, align 1, !tbaa !79
  call void @llvm.lifetime.start.p0(i64 4, ptr %16) #8
  store i32 0, ptr %16, align 4, !tbaa !8
  br label %68

68:                                               ; preds = %100, %56
  %69 = load i32, ptr %16, align 4, !tbaa !8
  %70 = load i32, ptr %11, align 4, !tbaa !8
  %71 = icmp ult i32 %69, %70
  br i1 %71, label %73, label %72

72:                                               ; preds = %68
  store i32 5, ptr %9, align 4
  call void @llvm.lifetime.end.p0(i64 4, ptr %16) #8
  br label %103

73:                                               ; preds = %68
  call void @llvm.lifetime.start.p0(i64 8, ptr %17) #8
  %74 = load ptr, ptr %10, align 8, !tbaa !3
  %75 = getelementptr inbounds nuw %struct.lv_svg_node_t, ptr %74, i32 0, i32 3
  %76 = load i32, ptr %16, align 4, !tbaa !8
  %77 = call ptr @lv_array_at(ptr noundef %75, i32 noundef %76)
  store ptr %77, ptr %17, align 8, !tbaa !3
  %78 = load ptr, ptr %17, align 8, !tbaa !3
  %79 = getelementptr inbounds nuw %struct.lv_svg_attr_t, ptr %78, i32 0, i32 0
  %80 = load i8, ptr %79, align 8, !tbaa !154
  %81 = zext i8 %80 to i32
  switch i32 %81, label %99 [
    i32 44, label %82
    i32 45, label %87
    i32 43, label %93
  ]

82:                                               ; preds = %73
  call void @llvm.lifetime.start.p0(i64 3, ptr %18) #8
  %83 = load ptr, ptr %17, align 8, !tbaa !3
  %84 = getelementptr inbounds nuw %struct.lv_svg_attr_t, ptr %83, i32 0, i32 3
  %85 = load i32, ptr %84, align 8, !tbaa !79
  %86 = call i24 @lv_color_hex(i32 noundef %85)
  store i24 %86, ptr %18, align 1
  call void @llvm.memcpy.p0.p0.i64(ptr align 1 %13, ptr align 1 %18, i64 3, i1 false), !tbaa.struct !233
  call void @llvm.lifetime.end.p0(i64 3, ptr %18) #8
  store i8 1, ptr %12, align 1, !tbaa !235
  br label %99

87:                                               ; preds = %73
  %88 = load ptr, ptr %17, align 8, !tbaa !3
  %89 = getelementptr inbounds nuw %struct.lv_svg_attr_t, ptr %88, i32 0, i32 3
  %90 = load float, ptr %89, align 8, !tbaa !79
  %91 = fmul float %90, 2.550000e+02
  %92 = fptoui float %91 to i8
  store i8 %92, ptr %14, align 1, !tbaa !79
  store i8 1, ptr %12, align 1, !tbaa !235
  br label %99

93:                                               ; preds = %73
  %94 = load ptr, ptr %17, align 8, !tbaa !3
  %95 = getelementptr inbounds nuw %struct.lv_svg_attr_t, ptr %94, i32 0, i32 3
  %96 = load float, ptr %95, align 8, !tbaa !79
  %97 = fmul float %96, 2.550000e+02
  %98 = fptoui float %97 to i8
  store i8 %98, ptr %15, align 1, !tbaa !79
  store i8 1, ptr %12, align 1, !tbaa !235
  br label %99

99:                                               ; preds = %73, %93, %87, %82
  call void @llvm.lifetime.end.p0(i64 8, ptr %17) #8
  br label %100

100:                                              ; preds = %99
  %101 = load i32, ptr %16, align 4, !tbaa !8
  %102 = add i32 %101, 1
  store i32 %102, ptr %16, align 4, !tbaa !8
  br label %68, !llvm.loop !248

103:                                              ; preds = %72
  %104 = load i8, ptr %12, align 1, !tbaa !235, !range !34, !noundef !35
  %105 = trunc i8 %104 to i1
  br i1 %105, label %106, label %132

106:                                              ; preds = %103
  %107 = load i8, ptr %14, align 1, !tbaa !79
  %108 = load ptr, ptr %5, align 8, !tbaa !3
  %109 = getelementptr inbounds nuw %struct.lv_svg_render_gradient_t, ptr %108, i32 0, i32 1
  %110 = getelementptr inbounds nuw %struct._lv_vector_gradient_t, ptr %109, i32 0, i32 1
  %111 = load i32, ptr %7, align 4, !tbaa !8
  %112 = zext i32 %111 to i64
  %113 = getelementptr inbounds nuw [2 x %struct.lv_gradient_stop_t], ptr %110, i64 0, i64 %112
  %114 = getelementptr inbounds nuw %struct.lv_gradient_stop_t, ptr %113, i32 0, i32 1
  store i8 %107, ptr %114, align 1, !tbaa !249
  %115 = load i8, ptr %15, align 1, !tbaa !79
  %116 = load ptr, ptr %5, align 8, !tbaa !3
  %117 = getelementptr inbounds nuw %struct.lv_svg_render_gradient_t, ptr %116, i32 0, i32 1
  %118 = getelementptr inbounds nuw %struct._lv_vector_gradient_t, ptr %117, i32 0, i32 1
  %119 = load i32, ptr %7, align 4, !tbaa !8
  %120 = zext i32 %119 to i64
  %121 = getelementptr inbounds nuw [2 x %struct.lv_gradient_stop_t], ptr %118, i64 0, i64 %120
  %122 = getelementptr inbounds nuw %struct.lv_gradient_stop_t, ptr %121, i32 0, i32 2
  store i8 %115, ptr %122, align 1, !tbaa !251
  %123 = load ptr, ptr %5, align 8, !tbaa !3
  %124 = getelementptr inbounds nuw %struct.lv_svg_render_gradient_t, ptr %123, i32 0, i32 1
  %125 = getelementptr inbounds nuw %struct._lv_vector_gradient_t, ptr %124, i32 0, i32 1
  %126 = load i32, ptr %7, align 4, !tbaa !8
  %127 = zext i32 %126 to i64
  %128 = getelementptr inbounds nuw [2 x %struct.lv_gradient_stop_t], ptr %125, i64 0, i64 %127
  %129 = getelementptr inbounds nuw %struct.lv_gradient_stop_t, ptr %128, i32 0, i32 0
  call void @llvm.memcpy.p0.p0.i64(ptr align 1 %129, ptr align 1 %13, i64 3, i1 false), !tbaa.struct !233
  %130 = load i32, ptr %7, align 4, !tbaa !8
  %131 = add i32 %130, 1
  store i32 %131, ptr %7, align 4, !tbaa !8
  br label %132

132:                                              ; preds = %106, %103
  %133 = load i32, ptr %7, align 4, !tbaa !8
  %134 = icmp eq i32 %133, 2
  br i1 %134, label %135, label %136

135:                                              ; preds = %132
  store i32 2, ptr %9, align 4
  br label %137

136:                                              ; preds = %132
  store i32 0, ptr %9, align 4
  br label %137

137:                                              ; preds = %136, %135
  call void @llvm.lifetime.end.p0(i64 1, ptr %15) #8
  call void @llvm.lifetime.end.p0(i64 1, ptr %14) #8
  call void @llvm.lifetime.end.p0(i64 3, ptr %13) #8
  call void @llvm.lifetime.end.p0(i64 1, ptr %12) #8
  call void @llvm.lifetime.end.p0(i64 4, ptr %11) #8
  call void @llvm.lifetime.end.p0(i64 8, ptr %10) #8
  %138 = load i32, ptr %9, align 4
  switch i32 %138, label %143 [
    i32 0, label %139
  ]

139:                                              ; preds = %137
  br label %140

140:                                              ; preds = %139
  %141 = load i32, ptr %8, align 4, !tbaa !8
  %142 = add i32 %141, 1
  store i32 %142, ptr %8, align 4, !tbaa !8
  br label %51, !llvm.loop !252

143:                                              ; preds = %137, %55
  call void @llvm.lifetime.end.p0(i64 4, ptr %8) #8
  br label %144

144:                                              ; preds = %143
  %145 = load i32, ptr %7, align 4, !tbaa !8
  %146 = trunc i32 %145 to i16
  %147 = load ptr, ptr %5, align 8, !tbaa !3
  %148 = getelementptr inbounds nuw %struct.lv_svg_render_gradient_t, ptr %147, i32 0, i32 1
  %149 = getelementptr inbounds nuw %struct._lv_vector_gradient_t, ptr %148, i32 0, i32 2
  store i16 %146, ptr %149, align 2, !tbaa !253
  call void @llvm.lifetime.end.p0(i64 4, ptr %7) #8
  call void @llvm.lifetime.end.p0(i64 4, ptr %6) #8
  call void @llvm.lifetime.end.p0(i64 8, ptr %5) #8
  ret void
}