; Function Attrs: nounwind uwtable
define internal void @_init_gradient(ptr noundef %0, ptr nocapture noundef readonly %1) #0 {
  %3 = getelementptr inbounds nuw i8, ptr %0, i64 464
  tail call void @lv_matrix_identity(ptr noundef nonnull %3) #9
  %4 = getelementptr inbounds nuw i8, ptr %0, i64 624
  store i8 0, ptr %4, align 8, !tbaa !239
  %5 = getelementptr inbounds nuw i8, ptr %0, i64 608
  store float 5.000000e-01, ptr %5, align 8, !tbaa !240
  %6 = getelementptr inbounds nuw i8, ptr %0, i64 612
  store float 5.000000e-01, ptr %6, align 4, !tbaa !241
  %7 = getelementptr inbounds nuw i8, ptr %0, i64 616
  store float 5.000000e-01, ptr %7, align 8, !tbaa !242
  %8 = getelementptr inbounds nuw i8, ptr %0, i64 592
  store float 0.000000e+00, ptr %8, align 8, !tbaa !243
  %9 = getelementptr inbounds nuw i8, ptr %0, i64 596
  store float 0.000000e+00, ptr %9, align 4, !tbaa !244
  %10 = getelementptr inbounds nuw i8, ptr %0, i64 600
  store float 1.000000e+00, ptr %10, align 8, !tbaa !245
  %11 = getelementptr inbounds nuw i8, ptr %0, i64 604
  store float 0.000000e+00, ptr %11, align 4, !tbaa !246
  %12 = getelementptr inbounds nuw i8, ptr %0, i64 620
  store i32 0, ptr %12, align 4, !tbaa !247
  %13 = getelementptr inbounds nuw i8, ptr %1, i64 16
  %14 = load i32, ptr %13, align 8, !tbaa !148
  %15 = getelementptr inbounds nuw i8, ptr %0, i64 580
  %.not70 = icmp eq i32 %14, 0
  br i1 %.not70, label %._crit_edge66, label %.lr.ph65

.lr.ph65:                                         ; preds = %2
  %16 = getelementptr inbounds nuw i8, ptr %1, i64 8
  %wide.trip.count = zext i32 %14 to i64
  br label %17

17:                                               ; preds = %.lr.ph65, %.thread
  %indvars.iv = phi i64 [ 0, %.lr.ph65 ], [ %indvars.iv.next, %.thread ]
  %.063 = phi i32 [ 0, %.lr.ph65 ], [ %.253, %.thread ]
  %18 = load ptr, ptr %16, align 8, !tbaa !149
  %19 = getelementptr inbounds nuw ptr, ptr %18, i64 %indvars.iv
  %20 = load ptr, ptr %19, align 8, !tbaa !4
  %21 = getelementptr inbounds nuw i8, ptr %20, i64 48
  %22 = tail call i32 @lv_array_size(ptr noundef nonnull %21) #9
  %23 = tail call i24 @lv_color_black() #9
  %.not71 = icmp eq i32 %22, 0
  br i1 %.not71, label %.thread, label %.lr.ph

._crit_edge:                                      ; preds = %40
  br i1 %.149, label %42, label %.thread

.lr.ph:                                           ; preds = %17, %40
  %.04358 = phi i32 [ %41, %40 ], [ 0, %17 ]
  %.04457 = phi i8 [ %.145, %40 ], [ 0, %17 ]
  %.04656 = phi i8 [ %.147, %40 ], [ -1, %17 ]
  %.sroa.08.055 = phi i24 [ %.sroa.08.1, %40 ], [ %23, %17 ]
  %.04854 = phi i1 [ %.149, %40 ], [ false, %17 ]
  %24 = tail call ptr @lv_array_at(ptr noundef nonnull %21, i32 noundef %.04358) #9
  %25 = load i8, ptr %24, align 8, !tbaa !163
  switch i8 %25, label %40 [
    i8 44, label %26
    i8 45, label %30
    i8 43, label %35
  ]

26:                                               ; preds = %.lr.ph
  %27 = getelementptr inbounds nuw i8, ptr %24, i64 8
  %28 = load i32, ptr %27, align 8, !tbaa !165
  %29 = tail call i24 @lv_color_hex(i32 noundef %28) #9
  br label %40

30:                                               ; preds = %.lr.ph
  %31 = getelementptr inbounds nuw i8, ptr %24, i64 8
  %32 = load float, ptr %31, align 8, !tbaa !165
  %33 = fmul float %32, 2.550000e+02
  %34 = fptoui float %33 to i8
  br label %40

35:                                               ; preds = %.lr.ph
  %36 = getelementptr inbounds nuw i8, ptr %24, i64 8
  %37 = load float, ptr %36, align 8, !tbaa !165
  %38 = fmul float %37, 2.550000e+02
  %39 = fptoui float %38 to i8
  br label %40

40:                                               ; preds = %35, %30, %26, %.lr.ph
  %.149 = phi i1 [ %.04854, %.lr.ph ], [ true, %35 ], [ true, %30 ], [ true, %26 ]
  %.sroa.08.1 = phi i24 [ %.sroa.08.055, %.lr.ph ], [ %.sroa.08.055, %35 ], [ %.sroa.08.055, %30 ], [ %29, %26 ]
  %.147 = phi i8 [ %.04656, %.lr.ph ], [ %.04656, %35 ], [ %34, %30 ], [ %.04656, %26 ]
  %.145 = phi i8 [ %.04457, %.lr.ph ], [ %39, %35 ], [ %.04457, %30 ], [ %.04457, %26 ]
  %41 = add nuw i32 %.04358, 1
  %exitcond.not = icmp eq i32 %41, %22
  br i1 %exitcond.not, label %._crit_edge, label %.lr.ph, !llvm.loop !248

42:                                               ; preds = %._crit_edge
  %43 = zext i32 %.063 to i64
  %44 = getelementptr inbounds nuw [2 x %struct.lv_gradient_stop_t], ptr %15, i64 0, i64 %43
  %45 = getelementptr inbounds nuw i8, ptr %44, i64 3
  store i8 %.147, ptr %45, align 1, !tbaa !249
  %46 = getelementptr inbounds nuw i8, ptr %44, i64 4
  store i8 %.145, ptr %46, align 1, !tbaa !251
  store i24 %.sroa.08.1, ptr %44, align 1
  %47 = add i32 %.063, 1
  %.not = icmp eq i32 %47, 2
  br i1 %.not, label %._crit_edge66.loopexit, label %.thread

.thread:                                          ; preds = %17, %._crit_edge, %42
  %.253 = phi i32 [ %47, %42 ], [ %.063, %._crit_edge ], [ %.063, %17 ]
  %indvars.iv.next = add nuw nsw i64 %indvars.iv, 1
  %exitcond73.not = icmp eq i64 %indvars.iv.next, %wide.trip.count
  br i1 %exitcond73.not, label %._crit_edge66.loopexit, label %17, !llvm.loop !252

._crit_edge66.loopexit:                           ; preds = %.thread, %42
  %.1.ph = phi i32 [ 2, %42 ], [ %.253, %.thread ]
  %48 = trunc i32 %.1.ph to i16
  br label %._crit_edge66

._crit_edge66:                                    ; preds = %._crit_edge66.loopexit, %2
  %.1 = phi i16 [ 0, %2 ], [ %48, %._crit_edge66.loopexit ]
  %49 = getelementptr inbounds nuw i8, ptr %0, i64 590
  store i16 %.1, ptr %49, align 2, !tbaa !253
  ret void
}